target datalayout = "e-m:e-p270:32:32-p271:32:32-p272:64:64-i64:64-i128:128-f80:128-n8:16:32:64-S128"
target triple = "x86_64-pc-linux-gnu"

%struct.slurm_conf_t = type { i64, ptr, i16, ptr, ptr, ptr, ptr, ptr, i16, ptr, ptr, ptr, ptr, ptr, ptr, ptr, i16, ptr, ptr, ptr, ptr, i16, ptr, ptr, ptr, i64, ptr, ptr, ptr, ptr, i16, ptr, ptr, i16, i32, ptr, i32, ptr, i32, i32, ptr, ptr, i64, i64, ptr, i16, i16, ptr, i32, i32, ptr, i32, ptr, i32, i16, i16, i16, ptr, i16, i16, ptr, ptr, i32, i16, i16, ptr, i32, i16, ptr, ptr, ptr, ptr, i16, ptr, ptr, ptr, ptr, i32, ptr, ptr, ptr, ptr, i16, i16, ptr, i32, i32, i32, i16, i16, ptr, ptr, i16, ptr, ptr, i32, i32, i32, i32, i32, i64, i32, i32, i16, ptr, ptr, i32, ptr, ptr, ptr, i16, i32, ptr, ptr, i16, ptr, ptr, i32, i16, ptr, ptr, ptr, ptr, i32, i32, i16, i16, i32, ptr, i16, ptr, i32, i32, i32, i32, i32, i32, ptr, i16, ptr, ptr, i32, i16, ptr, i32, i16, i16, ptr, ptr, ptr, i16, ptr, ptr, ptr, ptr, i16, i16, ptr, i16, ptr, i16, ptr, i16, ptr, i16, ptr, ptr, ptr, ptr, i16, ptr, ptr, ptr, i32, ptr, i32, ptr, ptr, i16, ptr, ptr, i32, i16, ptr, ptr, i16, i16, ptr, i16, ptr, ptr, ptr, i32, ptr, i16, i16, ptr, ptr, ptr, ptr, ptr, ptr, ptr, ptr, i16, i32, i16, ptr, ptr, ptr, ptr, i32, ptr, ptr, ptr, i16, ptr, ptr, ptr, i16, ptr, i16, ptr, i16, i16, ptr }
%struct.gs_part = type { ptr, i16, i32, ptr, i32, i32, ptr, i32, i32, ptr, ptr, i16, ptr }
%struct.job_record = type { i32, ptr, ptr, ptr, ptr, i16, i32, i32, i32, ptr, i32, ptr, ptr, i16, ptr, double, i64, ptr, ptr, ptr, ptr, ptr, ptr, i32, ptr, i32, i64, i64, i32, i32, ptr, i16, i64, i64, i8, i32, ptr, ptr, ptr, ptr, ptr, ptr, ptr, ptr, i32, ptr, ptr, i32, ptr, i32, ptr, i32, ptr, i32, ptr, ptr, ptr, ptr, ptr, ptr, i32, i16, i64, ptr, ptr, ptr, ptr, %struct.acct_policy_limit_set_t, i16, ptr, ptr, ptr, ptr, ptr, i32, ptr, ptr, ptr, ptr, ptr, i32, i32, ptr, ptr, ptr, i16, ptr, ptr, i8, ptr, ptr, i64, i64, i8, i32, i32, i8, i32, ptr, i32, i64, i32, ptr, ptr, ptr, i8, i16, i64, i32, ptr, ptr, ptr, ptr, ptr, i16, i32, ptr, ptr, ptr, ptr, i32, ptr, i32, i16, i64, ptr, i32, i32, ptr, i64, ptr, ptr, i64, i32, i32, i64, i32, i32, ptr, ptr, ptr, ptr, ptr, ptr, ptr, ptr, ptr, ptr, ptr, ptr, i32, ptr, i16, i16, i16, i16, ptr, i32, i32, i8, i64 }
%struct.acct_policy_limit_set_t = type { i16, i16, ptr }
%struct.gs_job = type { i32, ptr, i16, i16 }

@slurm_conf = external global %struct.slurm_conf_t, align 8
@.str.69 = private unnamed_addr constant [37 x i8] c"GANG: gang: %s: removing %pJ from %s\00", align 1
@__func__._remove_job_from_part = private unnamed_addr constant [22 x i8] c"_remove_job_from_part\00", align 1
@.str.70 = private unnamed_addr constant [39 x i8] c"GANG: gang: %s: resuming suspended %pJ\00", align 1

; Function Attrs: nounwind uwtable
define internal i32 @_find_job_index(ptr noundef %0, i32 noundef %1) #0 {
  %3 = alloca i32, align 4
  %4 = alloca ptr, align 8
  %5 = alloca i32, align 4
  %6 = alloca i32, align 4
  %7 = alloca i32, align 4
  store ptr %0, ptr %4, align 8
  store i32 %1, ptr %5, align 4
  call void @llvm.lifetime.start.p0(i64 4, ptr %6) #8
  store i32 0, ptr %6, align 4
  br label %8

8:                                                ; preds = %31, %2
  %9 = load i32, ptr %6, align 4
  %10 = load ptr, ptr %4, align 8
  %11 = getelementptr inbounds nuw %struct.gs_part, ptr %10, i32 0, i32 2
  %12 = load i32, ptr %11, align 4
  %13 = icmp ult i32 %9, %12
  br i1 %13, label %14, label %34

14:                                               ; preds = %8
  %15 = load ptr, ptr %4, align 8
  %16 = getelementptr inbounds nuw %struct.gs_part, ptr %15, i32 0, i32 3
  %17 = load ptr, ptr %16, align 8
  %18 = load i32, ptr %6, align 4
  %19 = sext i32 %18 to i64
  %20 = getelementptr inbounds ptr, ptr %17, i64 %19
  %21 = load ptr, ptr %20, align 8
  %22 = getelementptr inbounds nuw %struct.gs_job, ptr %21, i32 0, i32 1
  %23 = load ptr, ptr %22, align 8
  %24 = getelementptr inbounds nuw %struct.job_record, ptr %23, i32 0, i32 53
  %25 = load i32, ptr %24, align 8
  %26 = load i32, ptr %5, align 4
  %27 = icmp eq i32 %25, %26
  br i1 %27, label %28, label %30

28:                                               ; preds = %14
  %29 = load i32, ptr %6, align 4
  store i32 %29, ptr %3, align 4
  store i32 1, ptr %7, align 4
  br label %35

30:                                               ; preds = %14
  br label %31

31:                                               ; preds = %30
  %32 = load i32, ptr %6, align 4
  %33 = add nsw i32 %32, 1
  store i32 %33, ptr %6, align 4
  br label %8, !llvm.loop !22

34:                                               ; preds = %8
  store i32 -1, ptr %3, align 4
  store i32 1, ptr %7, align 4
  br label %35

35:                                               ; preds = %34, %28
  call void @llvm.lifetime.end.p0(i64 4, ptr %6) #8
  %36 = load i32, ptr %3, align 4
  ret i32 %36
}

; Function Attrs: nounwind uwtable
define internal void @_remove_job_from_part(i32 noundef %0, ptr noundef %1, i1 noundef zeroext %2) #0 {
  %4 = alloca i32, align 4
  %5 = alloca ptr, align 8
  %6 = alloca i8, align 1
  %7 = alloca i32, align 4
  %8 = alloca ptr, align 8
  %9 = alloca i32, align 4
  store i32 %0, ptr %4, align 4
  store ptr %1, ptr %5, align 8
  %10 = zext i1 %2 to i8
  store i8 %10, ptr %6, align 1
  call void @llvm.lifetime.start.p0(i64 4, ptr %7) #8
  call void @llvm.lifetime.start.p0(i64 8, ptr %8) #8
  %11 = load i32, ptr %4, align 4
  %12 = icmp ne i32 %11, 0
  br i1 %12, label %13, label %16

13:                                               ; preds = %3
  %14 = load ptr, ptr %5, align 8
  %15 = icmp ne ptr %14, null
  br i1 %15, label %17, label %16

16:                                               ; preds = %13, %3
  store i32 1, ptr %9, align 4
  br label %129

17:                                               ; preds = %13
  %18 = load ptr, ptr %5, align 8
  %19 = load i32, ptr %4, align 4
  %20 = call i32 @_find_job_index(ptr noundef %18, i32 noundef %19)
  store i32 %20, ptr %7, align 4
  %21 = load i32, ptr %7, align 4
  %22 = icmp slt i32 %21, 0
  br i1 %22, label %23, label %24

23:                                               ; preds = %17
  store i32 1, ptr %9, align 4
  br label %129

24:                                               ; preds = %17
  %25 = load ptr, ptr %5, align 8
  %26 = getelementptr inbounds nuw %struct.gs_part, ptr %25, i32 0, i32 3
  %27 = load ptr, ptr %26, align 8
  %28 = load i32, ptr %7, align 4
  %29 = sext i32 %28 to i64
  %30 = getelementptr inbounds ptr, ptr %27, i64 %29
  %31 = load ptr, ptr %30, align 8
  store ptr %31, ptr %8, align 8
  br label %32

32:                                               ; preds = %24
  %33 = load i64, ptr getelementptr inbounds nuw (%struct.slurm_conf_t, ptr @slurm_conf, i32 0, i32 42), align 8
  %34 = and i64 %33, 8192
  %35 = icmp ne i64 %34, 0
  br i1 %35, label %36, label %50

36:                                               ; preds = %32
  br label %37

37:                                               ; preds = %36
  %38 = call i32 @get_log_level()
  %39 = icmp sge i32 %38, 4
  br i1 %39, label %40, label %47

40:                                               ; preds = %37
  %41 = load ptr, ptr %8, align 8
  %42 = getelementptr inbounds nuw %struct.gs_job, ptr %41, i32 0, i32 1
  %43 = load ptr, ptr %42, align 8
  %44 = load ptr, ptr %5, align 8
  %45 = getelementptr inbounds nuw %struct.gs_part, ptr %44, i32 0, i32 0
  %46 = load ptr, ptr %45, align 8
  call void (i32, ptr, ...) @log_var(i32 noundef 4, ptr noundef @.str.69, ptr noundef @__func__._remove_job_from_part, ptr noundef %43, ptr noundef %46)
  br label %47

47:                                               ; preds = %40, %37
  br label %48

48:                                               ; preds = %47
  br label %49

49:                                               ; preds = %48
  br label %50

50:                                               ; preds = %49, %32
  br label %51

51:                                               ; preds = %50
  br label %52

52:                                               ; preds = %51
  %53 = load ptr, ptr %8, align 8
  call void @_clear_shadow(ptr noundef %53)
  %54 = load ptr, ptr %5, align 8
  %55 = getelementptr inbounds nuw %struct.gs_part, ptr %54, i32 0, i32 2
  %56 = load i32, ptr %55, align 4
  %57 = add i32 %56, -1
  store i32 %57, ptr %55, align 4
  br label %58

58:                                               ; preds = %79, %52
  %59 = load i32, ptr %7, align 4
  %60 = load ptr, ptr %5, align 8
  %61 = getelementptr inbounds nuw %struct.gs_part, ptr %60, i32 0, i32 2
  %62 = load i32, ptr %61, align 4
  %63 = icmp ult i32 %59, %62
  br i1 %63, label %64, label %82

64:                                               ; preds = %58
  %65 = load ptr, ptr %5, align 8
  %66 = getelementptr inbounds nuw %struct.gs_part, ptr %65, i32 0, i32 3
  %67 = load ptr, ptr %66, align 8
  %68 = load i32, ptr %7, align 4
  %69 = add nsw i32 %68, 1
  %70 = sext i32 %69 to i64
  %71 = getelementptr inbounds ptr, ptr %67, i64 %70
  %72 = load ptr, ptr %71, align 8
  %73 = load ptr, ptr %5, align 8
  %74 = getelementptr inbounds nuw %struct.gs_part, ptr %73, i32 0, i32 3
  %75 = load ptr, ptr %74, align 8
  %76 = load i32, ptr %7, align 4
  %77 = sext i32 %76 to i64
  %78 = getelementptr inbounds ptr, ptr %75, i64 %77
  store ptr %72, ptr %78, align 8
  br label %79

79:                                               ; preds = %64
  %80 = load i32, ptr %7, align 4
  %81 = add nsw i32 %80, 1
  store i32 %81, ptr %7, align 4
  br label %58, !llvm.loop !17

82:                                               ; preds = %58
  %83 = load ptr, ptr %5, align 8
  %84 = getelementptr inbounds nuw %struct.gs_part, ptr %83, i32 0, i32 3
  %85 = load ptr, ptr %84, align 8
  %86 = load i32, ptr %7, align 4
  %87 = sext i32 %86 to i64
  %88 = getelementptr inbounds ptr, ptr %85, i64 %87
  store ptr null, ptr %88, align 8
  %89 = load i8, ptr %6, align 1, !range !12, !noundef !13
  %90 = trunc i8 %89 to i1
  br i1 %90, label %126, label %91

91:                                               ; preds = %82
  %92 = load ptr, ptr %8, align 8
  %93 = getelementptr inbounds nuw %struct.gs_job, ptr %92, i32 0, i32 2
  %94 = load i16, ptr %93, align 8
  %95 = zext i16 %94 to i32
  %96 = icmp eq i32 %95, 0
  br i1 %96, label %97, label %126

97:                                               ; preds = %91
  %98 = load ptr, ptr %8, align 8
  %99 = getelementptr inbounds nuw %struct.gs_job, ptr %98, i32 0, i32 1
  %100 = load ptr, ptr %99, align 8
  %101 = getelementptr inbounds nuw %struct.job_record, ptr %100, i32 0, i32 97
  %102 = load i32, ptr %101, align 8
  %103 = icmp ne i32 %102, 0
  br i1 %103, label %104, label %126

104:                                              ; preds = %97
  br label %105

105:                                              ; preds = %104
  %106 = load i64, ptr getelementptr inbounds nuw (%struct.slurm_conf_t, ptr @slurm_conf, i32 0, i32 42), align 8
  %107 = and i64 %106, 8192
  %108 = icmp ne i64 %107, 0
  br i1 %108, label %109, label %120

109:                                              ; preds = %105
  br label %110

110:                                              ; preds = %109
  %111 = call i32 @get_log_level()
  %112 = icmp sge i32 %111, 4
  br i1 %112, label %113, label %117

113:                                              ; preds = %110
  %114 = load ptr, ptr %8, align 8
  %115 = getelementptr inbounds nuw %struct.gs_job, ptr %114, i32 0, i32 1
  %116 = load ptr, ptr %115, align 8
  call void (i32, ptr, ...) @log_var(i32 noundef 4, ptr noundef @.str.70, ptr noundef @__func__._remove_job_from_part, ptr noundef %116)
  br label %117

117:                                              ; preds = %113, %110
  br label %118

118:                                              ; preds = %117
  br label %119

119:                                              ; preds = %118
  br label %120

120:                                              ; preds = %119, %105
  br label %121

121:                                              ; preds = %120
  br label %122

122:                                              ; preds = %121
  %123 = load ptr, ptr %8, align 8
  %124 = getelementptr inbounds nuw %struct.gs_job, ptr %123, i32 0, i32 1
  %125 = load ptr, ptr %124, align 8
  call void @_resume_job(ptr noundef %125)
  br label %126

126:                                              ; preds = %122, %97, %91, %82
  %127 = load ptr, ptr %8, align 8
  %128 = getelementptr inbounds nuw %struct.gs_job, ptr %127, i32 0, i32 1
  store ptr null, ptr %128, align 8
  call void @slurm_xfree(ptr noundef %8)
  store i32 0, ptr %9, align 4
  br label %129

129:                                              ; preds = %126, %23, %16
  call void @llvm.lifetime.end.p0(i64 8, ptr %8) #8
  call void @llvm.lifetime.end.p0(i64 4, ptr %7) #8
  %130 = load i32, ptr %9, align 4
  switch i32 %130, label %132 [
    i32 0, label %131
    i32 1, label %131
  ]

131:                                              ; preds = %129, %129
  ret void

132:                                              ; preds = %129
  unreachable
}