; Function Attrs: nounwind uwtable
define internal fastcc void @_remove_job_from_part(i32 noundef %0, ptr noundef nonnull captures(none) %1, i1 noundef zeroext %2) unnamed_addr #0 {
  %4 = alloca ptr, align 8
  call void @llvm.lifetime.start.p0(i64 8, ptr nonnull %4) #8
  %.not = icmp eq i32 %0, 0
  br i1 %.not, label %_find_job_index.exit.thread, label %5

5:                                                ; preds = %3
  %6 = getelementptr inbounds nuw i8, ptr %1, i64 12
  %7 = load i32, ptr %6, align 4
  %.not.i = icmp eq i32 %7, 0
  br i1 %.not.i, label %_find_job_index.exit.thread, label %.lr.ph.i

.lr.ph.i:                                         ; preds = %5
  %8 = getelementptr inbounds nuw i8, ptr %1, i64 16
  %9 = load ptr, ptr %8, align 8
  %wide.trip.count.i = zext i32 %7 to i64
  br label %10

10:                                               ; preds = %18, %.lr.ph.i
  %indvars.iv.i = phi i64 [ 0, %.lr.ph.i ], [ %indvars.iv.next.i, %18 ]
  %11 = getelementptr inbounds nuw ptr, ptr %9, i64 %indvars.iv.i
  %12 = load ptr, ptr %11, align 8
  %13 = getelementptr inbounds nuw i8, ptr %12, i64 8
  %14 = load ptr, ptr %13, align 8
  %15 = getelementptr inbounds nuw i8, ptr %14, i64 392
  %16 = load i32, ptr %15, align 8
  %17 = icmp eq i32 %16, %0
  br i1 %17, label %_find_job_index.exit, label %18

18:                                               ; preds = %10
  %indvars.iv.next.i = add nuw nsw i64 %indvars.iv.i, 1
  %exitcond.not.i = icmp eq i64 %indvars.iv.next.i, %wide.trip.count.i
  br i1 %exitcond.not.i, label %_find_job_index.exit.thread, label %10, !llvm.loop !12

_find_job_index.exit:                             ; preds = %10
  %19 = trunc nuw nsw i64 %indvars.iv.i to i32
  %20 = and i64 %indvars.iv.i, 4294967295
  %21 = getelementptr inbounds nuw ptr, ptr %9, i64 %20
  %22 = load ptr, ptr %21, align 8
  store ptr %22, ptr %4, align 8
  %23 = load i64, ptr getelementptr inbounds nuw (i8, ptr @slurm_conf, i64 320), align 8
  %24 = and i64 %23, 8192
  %.not22 = icmp eq i64 %24, 0
  br i1 %.not22, label %32, label %25

25:                                               ; preds = %_find_job_index.exit
  %26 = tail call i32 @get_log_level() #8
  %27 = icmp sgt i32 %26, 3
  br i1 %27, label %28, label %32

28:                                               ; preds = %25
  %29 = getelementptr inbounds nuw i8, ptr %22, i64 8
  %30 = load ptr, ptr %29, align 8
  %31 = load ptr, ptr %1, align 8
  tail call void (i32, ptr, ...) @log_var(i32 noundef 4, ptr noundef nonnull @.str.69, ptr noundef nonnull @__func__._remove_job_from_part, ptr noundef %30, ptr noundef %31) #8
  br label %32

32:                                               ; preds = %25, %28, %_find_job_index.exit
  tail call fastcc void @_clear_shadow(ptr noundef %22)
  %33 = load i32, ptr %6, align 4
  %34 = add i32 %33, -1
  store i32 %34, ptr %6, align 4
  %35 = icmp ugt i32 %34, %19
  br i1 %35, label %.lr.ph, label %._crit_edge

.lr.ph:                                           ; preds = %32, %.lr.ph
  %indvars.iv = phi i64 [ %indvars.iv.next, %.lr.ph ], [ %indvars.iv.i, %32 ]
  %36 = load ptr, ptr %8, align 8
  %indvars.iv.next = add nuw nsw i64 %indvars.iv, 1
  %37 = getelementptr inbounds nuw ptr, ptr %36, i64 %indvars.iv.next
  %38 = load ptr, ptr %37, align 8
  %39 = getelementptr inbounds nuw ptr, ptr %36, i64 %indvars.iv
  store ptr %38, ptr %39, align 8
  %40 = load i32, ptr %6, align 4
  %41 = zext i32 %40 to i64
  %42 = icmp samesign ult i64 %indvars.iv.next, %41
  br i1 %42, label %.lr.ph, label %._crit_edge, !llvm.loop !16

._crit_edge:                                      ; preds = %.lr.ph, %32
  %.0.lcssa = phi i64 [ %indvars.iv.i, %32 ], [ %indvars.iv.next, %.lr.ph ]
  %43 = load ptr, ptr %8, align 8
  %44 = and i64 %.0.lcssa, 4294967295
  %45 = getelementptr inbounds nuw ptr, ptr %43, i64 %44
  store ptr null, ptr %45, align 8
  br i1 %2, label %64, label %46

46:                                               ; preds = %._crit_edge
  %47 = getelementptr inbounds nuw i8, ptr %22, i64 16
  %48 = load i16, ptr %47, align 8
  %49 = icmp eq i16 %48, 0
  br i1 %49, label %50, label %64

50:                                               ; preds = %46
  %51 = getelementptr inbounds nuw i8, ptr %22, i64 8
  %52 = load ptr, ptr %51, align 8
  %53 = getelementptr inbounds nuw i8, ptr %52, i64 720
  %54 = load i32, ptr %53, align 8
  %.not23 = icmp eq i32 %54, 0
  br i1 %.not23, label %64, label %55

55:                                               ; preds = %50
  %56 = load i64, ptr getelementptr inbounds nuw (i8, ptr @slurm_conf, i64 320), align 8
  %57 = and i64 %56, 8192
  %.not24 = icmp eq i64 %57, 0
  br i1 %.not24, label %62, label %58

58:                                               ; preds = %55
  %59 = tail call i32 @get_log_level() #8
  %60 = icmp sgt i32 %59, 3
  %.pre32 = load ptr, ptr %51, align 8
  br i1 %60, label %61, label %62

61:                                               ; preds = %58
  tail call void (i32, ptr, ...) @log_var(i32 noundef 4, ptr noundef nonnull @.str.70, ptr noundef nonnull @__func__._remove_job_from_part, ptr noundef %.pre32) #8
  %.pre = load ptr, ptr %51, align 8
  br label %62

62:                                               ; preds = %58, %61, %55
  %63 = phi ptr [ %.pre32, %58 ], [ %.pre, %61 ], [ %52, %55 ]
  tail call fastcc void @_resume_job(ptr noundef %63)
  br label %64

64:                                               ; preds = %62, %50, %46, %._crit_edge
  %65 = getelementptr inbounds nuw i8, ptr %22, i64 8
  store ptr null, ptr %65, align 8
  call void @slurm_xfree(ptr noundef nonnull %4) #8
  br label %_find_job_index.exit.thread

_find_job_index.exit.thread:                      ; preds = %18, %5, %3, %64
  call void @llvm.lifetime.end.p0(i64 8, ptr nonnull %4) #8
  ret void
}